(dp0
S'METTS MARK'
p1
(dp2
S'to_messages'
p3
F807.0
sS'deferral_payments'
p4
F0.0
sS'pct_msg_with_poi'
p5
F0.0466507188975811
sS'expenses'
p6
F94299.0
sS'poi'
p7
I00
sS'long_term_incentive'
p8
F0.0
sS'from_poi_to_this_person'
p9
F38.0
sS'deferred_income'
p10
F0.0
sS'restricted_stock'
p11
F585062.0
sS'restricted_stock_deferred'
p12
F0.0
sS'shared_receipt_with_poi'
p13
F702.0
sS'loan_advances'
p14
F0.0
sS'from_messages'
p15
F29.0
sS'other'
p16
F1740.0
sS'director_fees'
p17
F0.0
sS'bonus'
p18
F600000.0
sS'total_stock_value'
p19
F585062.0
sS'from_this_person_to_poi'
p20
F1.0
sS'short_term_incomes'
p21
F1061827.0
sS'salary'
p22
F365788.0
sS'total_payments'
p23
F1061827.0
sS'exercised_stock_options'
p24
F0.0
ssS'BAXTER JOHN C'
p25
(dp26
g3
F1211.0
sg4
F1295738.0
sg5
F0.034345049411058426
sg6
F11200.0
sg7
I00
sg8
F1586055.0
sg9
F35.0
sg10
F-1386055.0
sg11
F3942714.0
sg12
F0.0
sg13
F740.5
sg14
F0.0
sg15
F41.0
sg16
F2660303.0
sg17
F0.0
sg18
F1200000.0
sg19
F10623258.0
sg20
F8.0
sg21
F10819149.0
sg22
F267102.0
sg23
F5634343.0
sg24
F6680544.0
ssS'ELLIOTT STEVEN'
p27
(dp28
g3
F1211.0
sg4
F0.0
sg5
F0.034345049411058426
sg6
F78552.0
sg7
I00
sg8
F0.0
sg9
F35.0
sg10
F-400729.0
sg11
F1788391.0
sg12
F0.0
sg13
F740.5
sg14
F0.0
sg15
F41.0
sg16
F12961.0
sg17
F0.0
sg18
F350000.0
sg19
F6678735.0
sg20
F8.0
sg21
F5502798.0
sg22
F170941.0
sg23
F211725.0
sg24
F4890344.0
ssS'CORDES WILLIAM R'
p29
(dp30
g3
F764.0
sg4
F0.0
sg5
F0.012886597774922848
sg6
F0.0
sg7
I00
sg8
F0.0
sg9
F10.0
sg10
F0.0
sg11
F386335.0
sg12
F0.0
sg13
F58.0
sg14
F0.0
sg15
F12.0
sg16
F0.0
sg17
F0.0
sg18
F0.0
sg19
F1038185.0
sg20
F0.0
sg21
F651850.0
sg22
F0.0
sg23
F0.0
sg24
F651850.0
ssS'HANNON KEVIN P'
p31
(dp32
g3
F1045.0
sg4
F0.0
sg5
F0.049210771918296814
sg6
F34039.0
sg7
I01
sg8
F1617011.0
sg9
F32.0
sg10
F-3117011.0
sg11
F853064.0
sg12
F0.0
sg13
F1035.0
sg14
F0.0
sg15
F32.0
sg16
F11350.0
sg17
F0.0
sg18
F1500000.0
sg19
F6391065.0
sg20
F21.0
sg21
F7326683.0
sg22
F243293.0
sg23
F288682.0
sg24
F5538001.0
ssS'MORDAUNT KRISTINA M'
p33
(dp34
g3
F1211.0
sg4
F0.0
sg5
F0.034345049411058426
sg6
F35018.0
sg7
I00
sg8
F0.0
sg9
F35.0
sg10
F0.0
sg11
F208510.0
sg12
F0.0
sg13
F740.5
sg14
F0.0
sg15
F41.0
sg16
F1411.0
sg17
F0.0
sg18
F325000.0
sg19
F208510.0
sg20
F8.0
sg21
F628522.0
sg22
F267093.0
sg23
F628522.0
sg24
F0.0
ssS'MEYER ROCKFORD G'
p35
(dp36
g3
F232.0
sg4
F1848227.0
sg5
F0.0
sg6
F0.0
sg7
I00
sg8
F0.0
sg9
F0.0
sg10
F0.0
sg11
F462384.0
sg12
F0.0
sg13
F22.0
sg14
F0.0
sg15
F28.0
sg16
F0.0
sg17
F0.0
sg18
F0.0
sg19
F955873.0
sg20
F0.0
sg21
F493489.0
sg22
F0.0
sg23
F1848227.0
sg24
F493489.0
ssS'MCMAHON JEFFREY'
p37
(dp38
g3
F2355.0
sg4
F0.0
sg5
F0.03495630621910095
sg6
F137108.0
sg7
I00
sg8
F694862.0
sg9
F58.0
sg10
F0.0
sg11
F558801.0
sg12
F0.0
sg13
F2228.0
sg14
F0.0
sg15
F48.0
sg16
F297353.0
sg17
F0.0
sg18
F2600000.0
sg19
F1662855.0
sg20
F26.0
sg21
F4508963.0
sg22
F370448.0
sg23
F4099771.0
sg24
F1104054.0
ssS'HORTON STANLEY C'
p39
(dp40
g3
F2350.0
sg4
F3131860.0
sg5
F0.017236342653632164
sg6
F0.0
sg7
I00
sg8
F0.0
sg9
F44.0
sg10
F0.0
sg11
F2046079.0
sg12
F0.0
sg13
F1074.0
sg14
F0.0
sg15
F1073.0
sg16
F0.0
sg17
F0.0
sg18
F0.0
sg19
F7256648.0
sg20
F15.0
sg21
F5210569.0
sg22
F0.0
sg23
F3131860.0
sg24
F5210569.0
ssS'PIPER GREGORY F'
p41
(dp42
g3
F1238.0
sg4
F1130036.0
sg5
F0.07465753704309464
sg6
F43057.0
sg7
I00
sg8
F0.0
sg9
F61.0
sg10
F-33333.0
sg11
F409554.0
sg12
F-409554.0
sg13
F742.0
sg14
F0.0
sg15
F222.0
sg16
F778.0
sg17
F0.0
sg18
F400000.0
sg19
F880290.0
sg20
F48.0
sg21
F1521216.0
sg22
F197091.0
sg23
F1737629.0
sg24
F880290.0
ssS'HUMPHREY GENE E'
p43
(dp44
g3
F128.0
sg4
F2964506.0
sg5
F0.1862068921327591
sg6
F4994.0
sg7
I00
sg8
F0.0
sg9
F10.0
sg10
F0.0
sg11
F0.0
sg12
F0.0
sg13
F119.0
sg14
F0.0
sg15
F17.0
sg16
F0.0
sg17
F0.0
sg18
F0.0
sg19
F2282768.0
sg20
F17.0
sg21
F2418486.0
sg22
F130724.0
sg23
F3100224.0
sg24
F2282768.0
ssS'UMANOFF ADAM S'
p45
(dp46
g3
F111.0
sg4
F0.0
sg5
F0.09302325546741486
sg6
F53122.0
sg7
I00
sg8
F0.0
sg9
F12.0
sg10
F0.0
sg11
F0.0
sg12
F0.0
sg13
F41.0
sg14
F0.0
sg15
F18.0
sg16
F0.0
sg17
F0.0
sg18
F788750.0
sg19
F0.0
sg20
F0.0
sg21
F1130461.0
sg22
F288589.0
sg23
F1130461.0
sg24
F0.0
ssS'BLACHMAN JEREMY M'
p47
(dp48
g3
F2475.0
sg4
F0.0
sg5
F0.010847729630768299
sg6
F84208.0
sg7
I00
sg8
F831809.0
sg9
F25.0
sg10
F0.0
sg11
F189041.0
sg12
F0.0
sg13
F2326.0
sg14
F0.0
sg15
F14.0
sg16
F272.0
sg17
F0.0
sg18
F850000.0
sg19
F954354.0
sg20
F2.0
sg21
F1948339.0
sg22
F248546.0
sg23
F2014835.0
sg24
F765313.0
ssS'SUNDE MARTIN'
p49
(dp50
g3
F2647.0
sg4
F0.0
sg5
F0.01862197369337082
sg6
F0.0
sg7
I00
sg8
F476451.0
sg9
F37.0
sg10
F0.0
sg11
F698920.0
sg12
F0.0
sg13
F2565.0
sg14
F0.0
sg15
F38.0
sg16
F111122.0
sg17
F0.0
sg18
F700000.0
sg19
F698920.0
sg20
F13.0
sg21
F1068608.0
sg22
F257486.0
sg23
F1545059.0
sg24
F0.0
ssS'GIBBS DANA R'
p51
(dp52
g3
F169.0
sg4
F504610.0
sg5
F0.0
sg6
F0.0
sg7
I00
sg8
F461912.0
sg9
F0.0
sg10
F0.0
sg11
F0.0
sg12
F0.0
sg13
F23.0
sg14
F0.0
sg15
F12.0
sg16
F0.0
sg17
F0.0
sg18
F0.0
sg19
F2218275.0
sg20
F0.0
sg21
F2218275.0
sg22
F0.0
sg23
F966522.0
sg24
F2218275.0
ssS'LOWRY CHARLES P'
p53
(dp54
g3
F1211.0
sg4
F0.0
sg5
F0.034345049411058426
sg6
F0.0
sg7
I00
sg8
F0.0
sg9
F35.0
sg10
F0.0
sg11
F153686.0
sg12
F-153686.0
sg13
F740.5
sg14
F0.0
sg15
F41.0
sg16
F0.0
sg17
F0.0
sg18
F0.0
sg19
F372205.0
sg20
F8.0
sg21
F372205.0
sg22
F0.0
sg23
F0.0
sg24
F372205.0
ssS'COLWELL WESLEY'
p55
(dp56
g3
F1758.0
sg4
F27610.0
sg5
F0.13959956169128418
sg6
F16514.0
sg7
I01
sg8
F0.0
sg9
F240.0
sg10
F-144062.0
sg11
F698242.0
sg12
F0.0
sg13
F1132.0
sg14
F0.0
sg15
F40.0
sg16
F101740.0
sg17
F0.0
sg18
F1200000.0
sg19
F698242.0
sg20
F11.0
sg21
F1606796.0
sg22
F288542.0
sg23
F1490344.0
sg24
F0.0
ssS'MULLER MARK S'
p57
(dp58
g3
F136.0
sg4
F842924.0
sg5
F0.07894736528396606
sg6
F0.0
sg7
I00
sg8
F1725545.0
sg9
F12.0
sg10
F-719000.0
sg11
F360528.0
sg12
F0.0
sg13
F114.0
sg14
F0.0
sg15
F16.0
sg16
F947.0
sg17
F0.0
sg18
F1100000.0
sg19
F1416848.0
sg20
F0.0
sg21
F2408921.0
sg22
F251654.0
sg23
F3202070.0
sg24
F1056320.0
ssS'JACKSON CHARLENE R'
p59
(dp60
g3
F258.0
sg4
F0.0
sg5
F0.14012739062309265
sg6
F10181.0
sg7
I00
sg8
F0.0
sg9
F25.0
sg10
F0.0
sg11
F540672.0
sg12
F0.0
sg13
F117.0
sg14
F0.0
sg15
F56.0
sg16
F2435.0
sg17
F0.0
sg18
F250000.0
sg19
F725735.0
sg20
F19.0
sg21
F736237.0
sg22
F288558.0
sg23
F551174.0
sg24
F185063.0
ssS'WESTFAHL RICHARD K'
p61
(dp62
g3
F1211.0
sg4
F0.0
sg5
F0.034345049411058426
sg6
F51870.0
sg7
I00
sg8
F256191.0
sg9
F35.0
sg10
F-10800.0
sg11
F384930.0
sg12
F0.0
sg13
F740.5
sg14
F0.0
sg15
F41.0
sg16
F401130.0
sg17
F0.0
sg18
F0.0
sg19
F384930.0
sg20
F8.0
sg21
F516744.0
sg22
F63744.0
sg23
F762135.0
sg24
F0.0
ssS'WALTERS GARETH W'
p63
(dp64
g3
F1211.0
sg4
F53625.0
sg5
F0.034345049411058426
sg6
F33785.0
sg7
I00
sg8
F0.0
sg9
F35.0
sg10
F0.0
sg11
F0.0
sg12
F0.0
sg13
F740.5
sg14
F0.0
sg15
F41.0
sg16
F0.0
sg17
F0.0
sg18
F0.0
sg19
F1030329.0
sg20
F8.0
sg21
F1064114.0
sg22
F0.0
sg23
F87410.0
sg24
F1030329.0
ssS'WALLS JR ROBERT H'
p65
(dp66
g3
F671.0
sg4
F0.0
sg5
F0.020807834342122078
sg6
F50936.0
sg7
I00
sg8
F540751.0
sg9
F17.0
sg10
F0.0
sg11
F1552453.0
sg12
F0.0
sg13
F215.0
sg14
F0.0
sg15
F146.0
sg16
F2.0
sg17
F0.0
sg18
F850000.0
sg19
F5898997.0
sg20
F0.0
sg21
F5604573.0
sg22
F357091.0
sg23
F1798780.0
sg24
F4346544.0
ssS'KITCHEN LOUISE'
p67
(dp68
g3
F8305.0
sg4
F0.0
sg5
F0.044353634119033813
sg6
F5774.0
sg7
I00
sg8
F0.0
sg9
F251.0
sg10
F0.0
sg11
F466101.0
sg12
F0.0
sg13
F3669.0
sg14
F0.0
sg15
F1728.0
sg16
F93925.0
sg17
F0.0
sg18
F3100000.0
sg19
F547143.0
sg20
F194.0
sg21
F3552183.0
sg22
F271442.0
sg23
F3471141.0
sg24
F81042.0
ssS'CHAN RONNIE'
p69
(dp70
g3
F1211.0
sg4
F0.0
sg5
F0.034345049411058426
sg6
F0.0
sg7
I00
sg8
F0.0
sg9
F35.0
sg10
F-98784.0
sg11
F32460.0
sg12
F-32460.0
sg13
F740.5
sg14
F0.0
sg15
F41.0
sg16
F0.0
sg17
F98784.0
sg18
F0.0
sg19
F0.0
sg20
F8.0
sg21
F98784.0
sg22
F0.0
sg23
F0.0
sg24
F0.0
ssS'BELFER ROBERT'
p71
(dp72
g3
F1211.0
sg4
F-102500.0
sg5
F0.034345049411058426
sg6
F0.0
sg7
I00
sg8
F0.0
sg9
F35.0
sg10
F0.0
sg11
F0.0
sg12
F44093.0
sg13
F740.5
sg14
F0.0
sg15
F41.0
sg16
F0.0
sg17
F3285.0
sg18
F0.0
sg19
F-44093.0
sg20
F8.0
sg21
F6570.0
sg22
F0.0
sg23
F102500.0
sg24
F3285.0
ssS'SHANKMAN JEFFREY A'
p73
(dp74
g3
F3221.0
sg4
F0.0
sg5
F0.029989834874868393
sg6
F178979.0
sg7
I00
sg8
F554422.0
sg9
F94.0
sg10
F0.0
sg11
F630137.0
sg12
F0.0
sg13
F1730.0
sg14
F0.0
sg15
F2681.0
sg16
F1191.0
sg17
F0.0
sg18
F2000000.0
sg19
F2072035.0
sg20
F83.0
sg21
F3926178.0
sg22
F304110.0
sg23
F3038702.0
sg24
F1441898.0
ssS'WODRASKA JOHN'
p75
(dp76
g3
F1211.0
sg4
F0.0
sg5
F0.034345049411058426
sg6
F0.0
sg7
I00
sg8
F0.0
sg9
F35.0
sg10
F0.0
sg11
F0.0
sg12
F0.0
sg13
F740.5
sg14
F0.0
sg15
F41.0
sg16
F189583.0
sg17
F0.0
sg18
F0.0
sg19
F0.0
sg20
F8.0
sg21
F189583.0
sg22
F0.0
sg23
F189583.0
sg24
F0.0
ssS'BERGSIEKER RICHARD P'
p77
(dp78
g3
F383.0
sg4
F0.0
sg5
F0.009049774147570133
sg6
F59175.0
sg7
I00
sg8
F180250.0
sg9
F4.0
sg10
F-485813.0
sg11
F659249.0
sg12
F0.0
sg13
F233.0
sg14
F0.0
sg15
F59.0
sg16
F427316.0
sg17
F0.0
sg18
F250000.0
sg19
F659249.0
sg20
F0.0
sg21
F924413.0
sg22
F187922.0
sg23
F618850.0
sg24
F0.0
ssS'URQUHART JOHN A'
p79
(dp80
g3
F1211.0
sg4
F0.0
sg5
F0.034345049411058426
sg6
F228656.0
sg7
I00
sg8
F0.0
sg9
F35.0
sg10
F-36666.0
sg11
F0.0
sg12
F0.0
sg13
F740.5
sg14
F0.0
sg15
F41.0
sg16
F0.0
sg17
F36666.0
sg18
F0.0
sg19
F0.0
sg20
F8.0
sg21
F265322.0
sg22
F0.0
sg23
F228656.0
sg24
F0.0
ssS'BIBI PHILIPPE A'
p81
(dp82
g3
F1607.0
sg4
F0.0
sg5
F0.01882210001349449
sg6
F38559.0
sg7
I00
sg8
F369721.0
sg9
F23.0
sg10
F0.0
sg11
F378082.0
sg12
F0.0
sg13
F1336.0
sg14
F0.0
sg15
F40.0
sg16
F425688.0
sg17
F0.0
sg18
F1000000.0
sg19
F1843816.0
sg20
F8.0
sg21
F3143606.0
sg22
F213625.0
sg23
F2047593.0
sg24
F1465734.0
ssS'PIRO JIM'
p83
(dp84
g3
F58.0
sg4
F0.0
sg5
F0.013513513840734959
sg6
F0.0
sg7
I00
sg8
F0.0
sg9
F0.0
sg10
F0.0
sg11
F47304.0
sg12
F0.0
sg13
F3.0
sg14
F0.0
sg15
F16.0
sg16
F0.0
sg17
F0.0
sg18
F0.0
sg19
F47304.0
sg20
F1.0
sg21
F0.0
sg22
F0.0
sg23
F0.0
sg24
F0.0
ssS'RIEKER PAULA H'
p85
(dp86
g3
F1328.0
sg4
F214678.0
sg5
F0.058865249156951904
sg6
F33271.0
sg7
I01
sg8
F0.0
sg9
F35.0
sg10
F-100000.0
sg11
F283649.0
sg12
F0.0
sg13
F1258.0
sg14
F0.0
sg15
F82.0
sg16
F1950.0
sg17
F0.0
sg18
F700000.0
sg19
F1918887.0
sg20
F48.0
sg21
F2619660.0
sg22
F249201.0
sg23
F1099100.0
sg24
F1635238.0
ssS'WHALEY DAVID A'
p87
(dp88
g3
F1211.0
sg4
F0.0
sg5
F0.034345049411058426
sg6
F0.0
sg7
I00
sg8
F0.0
sg9
F35.0
sg10
F0.0
sg11
F0.0
sg12
F0.0
sg13
F740.5
sg14
F0.0
sg15
F41.0
sg16
F0.0
sg17
F0.0
sg18
F0.0
sg19
F98718.0
sg20
F8.0
sg21
F98718.0
sg22
F0.0
sg23
F0.0
sg24
F98718.0
ssS'BECK SALLY W'
p89
(dp90
g3
F7315.0
sg4
F0.0
sg5
F0.04546234384179115
sg6
F37172.0
sg7
I00
sg8
F0.0
sg9
F144.0
sg10
F0.0
sg11
F126027.0
sg12
F0.0
sg13
F2639.0
sg14
F0.0
sg15
F4343.0
sg16
F566.0
sg17
F0.0
sg18
F700000.0
sg19
F126027.0
sg20
F386.0
sg21
F969068.0
sg22
F231330.0
sg23
F969068.0
sg24
F0.0
ssS'HAUG DAVID L'
p91
(dp92
g3
F573.0
sg4
F0.0
sg5
F0.018581081181764603
sg6
F475.0
sg7
I00
sg8
F0.0
sg9
F4.0
sg10
F0.0
sg11
F2217299.0
sg12
F0.0
sg13
F471.0
sg14
F0.0
sg15
F19.0
sg16
F0.0
sg17
F0.0
sg18
F0.0
sg19
F2217299.0
sg20
F7.0
sg21
F475.0
sg22
F0.0
sg23
F475.0
sg24
F0.0
ssS'ECHOLS JOHN B'
p93
(dp94
g3
F1211.0
sg4
F0.0
sg5
F0.034345049411058426
sg6
F21530.0
sg7
I00
sg8
F2234774.0
sg9
F35.0
sg10
F0.0
sg11
F407503.0
sg12
F0.0
sg13
F740.5
sg14
F0.0
sg15
F41.0
sg16
F53775.0
sg17
F0.0
sg18
F200000.0
sg19
F1008941.0
sg20
F8.0
sg21
F1058988.0
sg22
F182245.0
sg23
F2692324.0
sg24
F601438.0
ssS'MENDELSOHN JOHN'
p95
(dp96
g3
F1211.0
sg4
F0.0
sg5
F0.034345049411058426
sg6
F148.0
sg7
I00
sg8
F0.0
sg9
F35.0
sg10
F-103750.0
sg11
F0.0
sg12
F0.0
sg13
F740.5
sg14
F0.0
sg15
F41.0
sg16
F0.0
sg17
F103750.0
sg18
F0.0
sg19
F0.0
sg20
F8.0
sg21
F103898.0
sg22
F0.0
sg23
F148.0
sg24
F0.0
ssS'HICKERSON GARY J'
p97
(dp98
g3
F1320.0
sg4
F0.0
sg5
F0.030438009649515152
sg6
F98849.0
sg7
I00
sg8
F69223.0
sg9
F40.0
sg10
F0.0
sg11
F441096.0
sg12
F0.0
sg13
F900.0
sg14
F0.0
sg15
F27.0
sg16
F1936.0
sg17
F0.0
sg18
F1700000.0
sg19
F441096.0
sg20
F1.0
sg21
F2012573.0
sg22
F211788.0
sg23
F2081796.0
sg24
F0.0
ssS'CLINE KENNETH W'
p99
(dp100
g3
F1211.0
sg4
F0.0
sg5
F0.034345049411058426
sg6
F0.0
sg7
I00
sg8
F0.0
sg9
F35.0
sg10
F0.0
sg11
F662086.0
sg12
F-472568.0
sg13
F740.5
sg14
F0.0
sg15
F41.0
sg16
F0.0
sg17
F0.0
sg18
F0.0
sg19
F189518.0
sg20
F8.0
sg21
F0.0
sg22
F0.0
sg23
F0.0
sg24
F0.0
ssS'LEWIS RICHARD'
p101
(dp102
g3
F952.0
sg4
F0.0
sg5
F0.010224948637187481
sg6
F0.0
sg7
I00
sg8
F0.0
sg9
F10.0
sg10
F0.0
sg11
F0.0
sg12
F0.0
sg13
F739.0
sg14
F0.0
sg15
F26.0
sg16
F0.0
sg17
F0.0
sg18
F0.0
sg19
F850477.0
sg20
F0.0
sg21
F850477.0
sg22
F0.0
sg23
F0.0
sg24
F850477.0
ssS'HAYES ROBERT E'
p103
(dp104
g3
F504.0
sg4
F7961.0
sg5
F0.03100775182247162
sg6
F0.0
sg7
I00
sg8
F0.0
sg9
F16.0
sg10
F0.0
sg11
F151418.0
sg12
F0.0
sg13
F50.0
sg14
F0.0
sg15
F12.0
sg16
F0.0
sg17
F0.0
sg18
F0.0
sg19
F151418.0
sg20
F0.0
sg21
F0.0
sg22
F0.0
sg23
F7961.0
sg24
F0.0
ssS'KOPPER MICHAEL J'
p105
(dp106
g3
F1211.0
sg4
F0.0
sg5
F0.034345049411058426
sg6
F118134.0
sg7
I01
sg8
F602671.0
sg9
F35.0
sg10
F0.0
sg11
F985032.0
sg12
F0.0
sg13
F740.5
sg14
F0.0
sg15
F41.0
sg16
F907502.0
sg17
F0.0
sg18
F800000.0
sg19
F985032.0
sg20
F8.0
sg21
F2049941.0
sg22
F224305.0
sg23
F2652612.0
sg24
F0.0
ssS'LEFF DANIEL P'
p107
(dp108
g3
F2822.0
sg4
F0.0
sg5
F0.028076255694031715
sg6
F0.0
sg7
I00
sg8
F1387399.0
sg9
F67.0
sg10
F0.0
sg11
F360528.0
sg12
F0.0
sg13
F2672.0
sg14
F0.0
sg15
F63.0
sg16
F3083.0
sg17
F0.0
sg18
F1000000.0
sg19
F360528.0
sg20
F14.0
sg21
F1276829.0
sg22
F273746.0
sg23
F2664228.0
sg24
F0.0
ssS'LAVORATO JOHN J'
p109
(dp110
g3
F7259.0
sg4
F0.0
sg5
F0.09538805484771729
sg6
F49537.0
sg7
I00
sg8
F2035380.0
sg9
F528.0
sg10
F0.0
sg11
F1008149.0
sg12
F0.0
sg13
F3962.0
sg14
F0.0
sg15
F2585.0
sg16
F1552.0
sg17
F0.0
sg18
F8000000.0
sg19
F5167144.0
sg20
F411.0
sg21
F12549372.0
sg22
F339288.0
sg23
F10425757.0
sg24
F4158995.0
ssS'BERBERIAN DAVID'
p111
(dp112
g3
F1211.0
sg4
F0.0
sg5
F0.034345049411058426
sg6
F11892.0
sg7
I00
sg8
F0.0
sg9
F35.0
sg10
F0.0
sg11
F869220.0
sg12
F0.0
sg13
F740.5
sg14
F0.0
sg15
F41.0
sg16
F0.0
sg17
F0.0
sg18
F0.0
sg19
F2493616.0
sg20
F8.0
sg21
F1852870.0
sg22
F216582.0
sg23
F228474.0
sg24
F1624396.0
ssS'DETMERING TIMOTHY J'
p113
(dp114
g3
F1211.0
sg4
F875307.0
sg5
F0.034345049411058426
sg6
F52255.0
sg7
I00
sg8
F415657.0
sg9
F35.0
sg10
F-775241.0
sg11
F315068.0
sg12
F-315068.0
sg13
F740.5
sg14
F0.0
sg15
F41.0
sg16
F1105.0
sg17
F0.0
sg18
F425000.0
sg19
F2027865.0
sg20
F8.0
sg21
F2716725.0
sg22
F210500.0
sg23
F1204583.0
sg24
F2027865.0
ssS'WAKEHAM JOHN'
p115
(dp116
g3
F1211.0
sg4
F0.0
sg5
F0.034345049411058426
sg6
F103773.0
sg7
I00
sg8
F0.0
sg9
F35.0
sg10
F0.0
sg11
F0.0
sg12
F0.0
sg13
F740.5
sg14
F0.0
sg15
F41.0
sg16
F0.0
sg17
F109298.0
sg18
F0.0
sg19
F0.0
sg20
F8.0
sg21
F213071.0
sg22
F0.0
sg23
F213071.0
sg24
F0.0
ssS'POWERS WILLIAM'
p117
(dp118
g3
F653.0
sg4
F0.0
sg5
F0.0
sg6
F0.0
sg7
I00
sg8
F0.0
sg9
F0.0
sg10
F-17500.0
sg11
F0.0
sg12
F0.0
sg13
F12.0
sg14
F0.0
sg15
F26.0
sg16
F0.0
sg17
F17500.0
sg18
F0.0
sg19
F0.0
sg20
F0.0
sg21
F17500.0
sg22
F0.0
sg23
F0.0
sg24
F0.0
ssS'GOLD JOSEPH'
p119
(dp120
g3
F1211.0
sg4
F0.0
sg5
F0.034345049411058426
sg6
F0.0
sg7
I00
sg8
F304805.0
sg9
F35.0
sg10
F0.0
sg11
F441096.0
sg12
F0.0
sg13
F740.5
sg14
F0.0
sg15
F41.0
sg16
F819288.0
sg17
F0.0
sg18
F750000.0
sg19
F877611.0
sg20
F8.0
sg21
F2278683.0
sg22
F272880.0
sg23
F2146973.0
sg24
F436515.0
ssS'BANNANTINE JAMES M'
p121
(dp122
g3
F566.0
sg4
F0.0
sg5
F0.06554622203111649
sg6
F56301.0
sg7
I00
sg8
F0.0
sg9
F39.0
sg10
F-5104.0
sg11
F1757552.0
sg12
F-560222.0
sg13
F465.0
sg14
F0.0
sg15
F29.0
sg16
F864523.0
sg17
F0.0
sg18
F0.0
sg19
F5243487.0
sg20
F0.0
sg21
F4967458.0
sg22
F477.0
sg23
F916197.0
sg24
F4046157.0
ssS'DUNCAN JOHN H'
p123
(dp124
g3
F1211.0
sg4
F0.0
sg5
F0.034345049411058426
sg6
F0.0
sg7
I00
sg8
F0.0
sg9
F35.0
sg10
F-25000.0
sg11
F0.0
sg12
F0.0
sg13
F740.5
sg14
F0.0
sg15
F41.0
sg16
F0.0
sg17
F102492.0
sg18
F0.0
sg19
F371750.0
sg20
F8.0
sg21
F474242.0
sg22
F0.0
sg23
F77492.0
sg24
F371750.0
ssS'SHAPIRO RICHARD S'
p125
(dp126
g3
F15149.0
sg4
F0.0
sg5
F0.008494256064295769
sg6
F137767.0
sg7
I00
sg8
F0.0
sg9
F74.0
sg10
F0.0
sg11
F379164.0
sg12
F0.0
sg13
F4527.0
sg14
F0.0
sg15
F1215.0
sg16
F705.0
sg17
F0.0
sg18
F650000.0
sg19
F987001.0
sg20
F65.0
sg21
F1665385.0
sg22
F269076.0
sg23
F1057548.0
sg24
F607837.0
ssS'SHERRIFF JOHN R'
p127
(dp128
g3
F3187.0
sg4
F0.0
sg5
F0.015553522855043411
sg6
F0.0
sg7
I00
sg8
F554422.0
sg9
F28.0
sg10
F0.0
sg11
F1293424.0
sg12
F0.0
sg13
F2103.0
sg14
F0.0
sg15
F92.0
sg16
F1852186.0
sg17
F0.0
sg18
F1500000.0
sg19
F3128982.0
sg20
F23.0
sg21
F5616524.0
sg22
F428780.0
sg23
F4335388.0
sg24
F1835558.0
ssS'SHELBY REX'
p129
(dp130
g3
F225.0
sg4
F0.0
sg5
F0.10227272659540176
sg6
F22884.0
sg7
I01
sg8
F0.0
sg9
F13.0
sg10
F-4167.0
sg11
F869220.0
sg12
F0.0
sg13
F91.0
sg14
F0.0
sg15
F39.0
sg16
F1573324.0
sg17
F0.0
sg18
F200000.0
sg19
F2493616.0
sg20
F14.0
sg21
F3632448.0
sg22
F211844.0
sg23
F2003885.0
sg24
F1624396.0
ssS'LEMAISTRE CHARLES'
p131
(dp132
g3
F1211.0
sg4
F0.0
sg5
F0.034345049411058426
sg6
F0.0
sg7
I00
sg8
F0.0
sg9
F35.0
sg10
F-25000.0
sg11
F0.0
sg12
F0.0
sg13
F740.5
sg14
F0.0
sg15
F41.0
sg16
F0.0
sg17
F112492.0
sg18
F0.0
sg19
F412878.0
sg20
F8.0
sg21
F525370.0
sg22
F0.0
sg23
F87492.0
sg24
F412878.0
ssS'DEFFNER JOSEPH M'
p133
(dp134
g3
F714.0
sg4
F0.0
sg5
F0.15101522207260132
sg6
F41626.0
sg7
I00
sg8
F335349.0
sg9
F115.0
sg10
F0.0
sg11
F141833.0
sg12
F0.0
sg13
F552.0
sg14
F0.0
sg15
F74.0
sg16
F25553.0
sg17
F0.0
sg18
F600000.0
sg19
F159211.0
sg20
F4.0
sg21
F890678.0
sg22
F206121.0
sg23
F1208649.0
sg24
F17378.0
ssS'KISHKILL JOSEPH G'
p135
(dp136
g3
F1211.0
sg4
F0.0
sg5
F0.034345049411058426
sg6
F116335.0
sg7
I00
sg8
F0.0
sg9
F35.0
sg10
F-51042.0
sg11
F1034346.0
sg12
F0.0
sg13
F740.5
sg14
F0.0
sg15
F41.0
sg16
F465357.0
sg17
F0.0
sg18
F0.0
sg19
F1034346.0
sg20
F8.0
sg21
F755938.0
sg22
F174246.0
sg23
F704896.0
sg24
F0.0
ssS'WHALLEY LAWRENCE G'
p137
(dp138
g3
F6019.0
sg4
F0.0
sg5
F0.03193916380405426
sg6
F57838.0
sg7
I00
sg8
F808346.0
sg9
F186.0
sg10
F0.0
sg11
F2796177.0
sg12
F0.0
sg13
F3920.0
sg14
F0.0
sg15
F556.0
sg16
F301026.0
sg17
F0.0
sg18
F3000000.0
sg19
F6079137.0
sg20
F24.0
sg21
F7152188.0
sg22
F510364.0
sg23
F4677574.0
sg24
F3282960.0
ssS'MCCARTY DANNY J'
p139
(dp140
g3
F1433.0
sg4
F0.0
sg5
F0.016383495181798935
sg6
F0.0
sg7
I00
sg8
F0.0
sg9
F25.0
sg10
F0.0
sg11
F94556.0
sg12
F0.0
sg13
F508.0
sg14
F0.0
sg15
F215.0
sg16
F0.0
sg17
F0.0
sg18
F0.0
sg19
F758931.0
sg20
F2.0
sg21
F664375.0
sg22
F0.0
sg23
F0.0
sg24
F664375.0
ssS'MCCONNELL MICHAEL S'
p141
(dp142
g3
F3329.0
sg4
F0.0
sg5
F0.0471092090010643
sg6
F81364.0
sg7
I00
sg8
F554422.0
sg9
F92.0
sg10
F0.0
sg11
F1478269.0
sg12
F0.0
sg13
F2189.0
sg14
F0.0
sg15
F2742.0
sg16
F540.0
sg17
F0.0
sg18
F1100000.0
sg19
F3101279.0
sg20
F194.0
sg21
F3169952.0
sg22
F365038.0
sg23
F2101364.0
sg24
F1623010.0
ssS'DELAINEY DAVID W'
p143
(dp144
g3
F3093.0
sg4
F0.0
sg5
F0.1095423549413681
sg6
F86174.0
sg7
I01
sg8
F1294981.0
sg9
F66.0
sg10
F0.0
sg11
F1323148.0
sg12
F0.0
sg13
F2097.0
sg14
F0.0
sg15
F3069.0
sg16
F1661.0
sg17
F0.0
sg18
F3000000.0
sg19
F3614261.0
sg20
F609.0
sg21
F5744111.0
sg22
F365163.0
sg23
F4747979.0
sg24
F2291113.0
ssS'SULLIVAN-SHAKLOVITZ COLLEEN'
p145
(dp146
g3
F1211.0
sg4
F181993.0
sg5
F0.034345049411058426
sg6
F0.0
sg7
I00
sg8
F554422.0
sg9
F35.0
sg10
F0.0
sg11
F0.0
sg12
F0.0
sg13
F740.5
sg14
F0.0
sg15
F41.0
sg16
F162.0
sg17
F0.0
sg18
F100000.0
sg19
F1362375.0
sg20
F8.0
sg21
F1625316.0
sg22
F162779.0
sg23
F999356.0
sg24
F1362375.0
ssS'WROBEL BRUCE'
p147
(dp148
g3
F1211.0
sg4
F0.0
sg5
F0.034345049411058426
sg6
F0.0
sg7
I00
sg8
F0.0
sg9
F35.0
sg10
F0.0
sg11
F0.0
sg12
F0.0
sg13
F740.5
sg14
F0.0
sg15
F41.0
sg16
F0.0
sg17
F0.0
sg18
F0.0
sg19
F139130.0
sg20
F8.0
sg21
F139130.0
sg22
F0.0
sg23
F0.0
sg24
F139130.0
ssS'LINDHOLM TOD A'
p149
(dp150
g3
F1211.0
sg4
F204075.0
sg5
F0.034345049411058426
sg6
F57727.0
sg7
I00
sg8
F175000.0
sg9
F35.0
sg10
F0.0
sg11
F514847.0
sg12
F0.0
sg13
F740.5
sg14
F0.0
sg15
F41.0
sg16
F2630.0
sg17
F0.0
sg18
F200000.0
sg19
F3064208.0
sg20
F8.0
sg21
F3046175.0
sg22
F236457.0
sg23
F875889.0
sg24
F2549361.0
ssS'MEYER JEROME J'
p151
(dp152
g3
F1211.0
sg4
F0.0
sg5
F0.034345049411058426
sg6
F2151.0
sg7
I00
sg8
F0.0
sg9
F35.0
sg10
F-38346.0
sg11
F0.0
sg12
F0.0
sg13
F740.5
sg14
F0.0
sg15
F41.0
sg16
F0.0
sg17
F38346.0
sg18
F0.0
sg19
F0.0
sg20
F8.0
sg21
F40497.0
sg22
F0.0
sg23
F2151.0
sg24
F0.0
ssS'LAY KENNETH L'
p153
(dp154
g3
F4273.0
sg4
F202911.0
sg5
F0.032258063554763794
sg6
F99832.0
sg7
I01
sg8
F3600000.0
sg9
F123.0
sg10
F-300000.0
sg11
F14761694.0
sg12
F0.0
sg13
F2411.0
sg14
F81525000.0
sg15
F36.0
sg16
F10359729.0
sg17
F0.0
sg18
F7000000.0
sg19
F49110080.0
sg20
F16.0
sg21
F52880264.0
sg22
F1072321.0
sg23
F103559792.0
sg24
F34348384.0
ssS'BUTTS ROBERT H'
p155
(dp156
g3
F1211.0
sg4
F0.0
sg5
F0.034345049411058426
sg6
F9410.0
sg7
I00
sg8
F175000.0
sg9
F35.0
sg10
F-75000.0
sg11
F417619.0
sg12
F0.0
sg13
F740.5
sg14
F0.0
sg15
F41.0
sg16
F150656.0
sg17
F0.0
sg18
F750000.0
sg19
F417619.0
sg20
F8.0
sg21
F1171582.0
sg22
F261516.0
sg23
F1271582.0
sg24
F0.0
ssS'OLSON CINDY K'
p157
(dp158
g3
F1184.0
sg4
F77716.0
sg5
F0.028317151591181755
sg6
F63791.0
sg7
I00
sg8
F100000.0
sg9
F20.0
sg10
F0.0
sg11
F969729.0
sg12
F0.0
sg13
F856.0
sg14
F0.0
sg15
F52.0
sg16
F972.0
sg17
F0.0
sg18
F750000.0
sg19
F2606763.0
sg20
F15.0
sg21
F2780875.0
sg22
F329078.0
sg23
F1321557.0
sg24
F1637034.0
ssS'MCDONALD REBECCA'
p159
(dp160
g3
F894.0
sg4
F0.0
sg5
F0.06063947081565857
sg6
F0.0
sg7
I00
sg8
F0.0
sg9
F54.0
sg10
F0.0
sg11
F934065.0
sg12
F0.0
sg13
F720.0
sg14
F0.0
sg15
F13.0
sg16
F0.0
sg17
F0.0
sg18
F0.0
sg19
F1691366.0
sg20
F1.0
sg21
F757301.0
sg22
F0.0
sg23
F0.0
sg24
F757301.0
ssS'CUMBERLAND MICHAEL S'
p161
(dp162
g3
F1211.0
sg4
F0.0
sg5
F0.034345049411058426
sg6
F22344.0
sg7
I00
sg8
F275000.0
sg9
F35.0
sg10
F0.0
sg11
F207940.0
sg12
F0.0
sg13
F740.5
sg14
F0.0
sg15
F41.0
sg16
F713.0
sg17
F0.0
sg18
F325000.0
sg19
F207940.0
sg20
F8.0
sg21
F532956.0
sg22
F184899.0
sg23
F807956.0
sg24
F0.0
ssS'GAHN ROBERT S'
p163
(dp164
g3
F1211.0
sg4
F73122.0
sg5
F0.034345049411058426
sg6
F50080.0
sg7
I00
sg8
F0.0
sg9
F35.0
sg10
F-1042.0
sg11
F235370.0
sg12
F0.0
sg13
F740.5
sg14
F0.0
sg15
F41.0
sg16
F76547.0
sg17
F0.0
sg18
F509870.0
sg19
F318607.0
sg20
F8.0
sg21
F911742.0
sg22
F192008.0
sg23
F900585.0
sg24
F83237.0
ssS'MCCLELLAN GEORGE'
p165
(dp166
g3
F1744.0
sg4
F0.0
sg5
F0.029001673683524132
sg6
F228763.0
sg7
I00
sg8
F0.0
sg9
F52.0
sg10
F-125000.0
sg11
F441096.0
sg12
F0.0
sg13
F1469.0
sg14
F0.0
sg15
F49.0
sg16
F51587.0
sg17
F0.0
sg18
F900000.0
sg19
F947861.0
sg20
F0.0
sg21
F1950528.0
sg22
F263413.0
sg23
F1318763.0
sg24
F506765.0
ssS'HERMANN ROBERT J'
p167
(dp168
g3
F1211.0
sg4
F0.0
sg5
F0.034345049411058426
sg6
F48357.0
sg7
I00
sg8
F150000.0
sg9
F35.0
sg10
F-280000.0
sg11
F480632.0
sg12
F0.0
sg13
F740.5
sg14
F0.0
sg15
F41.0
sg16
F416441.0
sg17
F0.0
sg18
F700000.0
sg19
F668132.0
sg20
F8.0
sg21
F1614961.0
sg22
F262663.0
sg23
F1297461.0
sg24
F187500.0
ssS'SCRIMSHAW MATTHEW'
p169
(dp170
g3
F1211.0
sg4
F0.0
sg5
F0.034345049411058426
sg6
F0.0
sg7
I00
sg8
F0.0
sg9
F35.0
sg10
F0.0
sg11
F0.0
sg12
F0.0
sg13
F740.5
sg14
F0.0
sg15
F41.0
sg16
F0.0
sg17
F0.0
sg18
F0.0
sg19
F759557.0
sg20
F8.0
sg21
F759557.0
sg22
F0.0
sg23
F0.0
sg24
F759557.0
ssS'GATHMANN WILLIAM D'
p171
(dp172
g3
F1211.0
sg4
F0.0
sg5
F0.034345049411058426
sg6
F0.0
sg7
I00
sg8
F0.0
sg9
F35.0
sg10
F0.0
sg11
F264013.0
sg12
F-72419.0
sg13
F740.5
sg14
F0.0
sg15
F41.0
sg16
F0.0
sg17
F0.0
sg18
F0.0
sg19
F1945360.0
sg20
F8.0
sg21
F1753766.0
sg22
F0.0
sg23
F0.0
sg24
F1753766.0
ssS'HAEDICKE MARK E'
p173
(dp174
g3
F4009.0
sg4
F2157527.0
sg5
F0.040504202246665955
sg6
F76169.0
sg7
I00
sg8
F983346.0
sg9
F180.0
sg10
F-934484.0
sg11
F524169.0
sg12
F-329825.0
sg13
F1847.0
sg14
F0.0
sg15
F1941.0
sg16
F52382.0
sg17
F0.0
sg18
F1150000.0
sg19
F803094.0
sg20
F61.0
sg21
F2261426.0
sg22
F374125.0
sg23
F3859065.0
sg24
F608750.0
ssS'BOWEN JR RAYMOND M'
p175
(dp176
g3
F1858.0
sg4
F0.0
sg5
F0.08222811669111252
sg6
F65907.0
sg7
I01
sg8
F974293.0
sg9
F140.0
sg10
F-833.0
sg11
F252055.0
sg12
F0.0
sg13
F1593.0
sg14
F0.0
sg15
F27.0
sg16
F1621.0
sg17
F0.0
sg18
F1350000.0
sg19
F252055.0
sg20
F15.0
sg21
F1696129.0
sg22
F278601.0
sg23
F2669589.0
sg24
F0.0
ssS'GILLIS JOHN'
p177
(dp178
g3
F1211.0
sg4
F0.0
sg5
F0.034345049411058426
sg6
F0.0
sg7
I00
sg8
F0.0
sg9
F35.0
sg10
F0.0
sg11
F75838.0
sg12
F0.0
sg13
F740.5
sg14
F0.0
sg15
F41.0
sg16
F0.0
sg17
F0.0
sg18
F0.0
sg19
F85641.0
sg20
F8.0
sg21
F9803.0
sg22
F0.0
sg23
F0.0
sg24
F9803.0
ssS'FITZGERALD JAY L'
p179
(dp180
g3
F936.0
sg4
F0.0
sg5
F0.009453781880438328
sg6
F23870.0
sg7
I00
sg8
F556416.0
sg9
F1.0
sg10
F0.0
sg11
F956775.0
sg12
F0.0
sg13
F723.0
sg14
F0.0
sg15
F16.0
sg16
F285414.0
sg17
F0.0
sg18
F350000.0
sg19
F1621236.0
sg20
F8.0
sg21
F1522902.0
sg22
F199157.0
sg23
F1414857.0
sg24
F664461.0
ssS'MORAN MICHAEL P'
p181
(dp182
g3
F672.0
sg4
F0.0
sg5
F0.0
sg6
F0.0
sg7
I00
sg8
F0.0
sg9
F0.0
sg10
F0.0
sg11
F161602.0
sg12
F0.0
sg13
F127.0
sg14
F0.0
sg15
F19.0
sg16
F0.0
sg17
F0.0
sg18
F0.0
sg19
F221141.0
sg20
F0.0
sg21
F59539.0
sg22
F0.0
sg23
F0.0
sg24
F59539.0
ssS'REDMOND BRIAN L'
p183
(dp184
g3
F1671.0
sg4
F0.0
sg5
F0.13372093439102173
sg6
F14689.0
sg7
I00
sg8
F0.0
sg9
F204.0
sg10
F0.0
sg11
F381285.0
sg12
F0.0
sg13
F1063.0
sg14
F0.0
sg15
F221.0
sg16
F0.0
sg17
F0.0
sg18
F0.0
sg19
F7890324.0
sg20
F49.0
sg21
F7620568.0
sg22
F96840.0
sg23
F111529.0
sg24
F7509039.0
ssS'BAZELIDES PHILIP J'
p185
(dp186
g3
F1211.0
sg4
F684694.0
sg5
F0.034345049411058426
sg6
F0.0
sg7
I00
sg8
F93750.0
sg9
F35.0
sg10
F0.0
sg11
F0.0
sg12
F0.0
sg13
F740.5
sg14
F0.0
sg15
F41.0
sg16
F874.0
sg17
F0.0
sg18
F0.0
sg19
F1599641.0
sg20
F8.0
sg21
F1681333.0
sg22
F80818.0
sg23
F860136.0
sg24
F1599641.0
ssS'BELDEN TIMOTHY N'
p187
(dp188
g3
F7991.0
sg4
F2144013.0
sg5
F0.03964601829648018
sg6
F17355.0
sg7
I01
sg8
F0.0
sg9
F228.0
sg10
F-2334434.0
sg11
F157569.0
sg12
F0.0
sg13
F5521.0
sg14
F0.0
sg15
F484.0
sg16
F210698.0
sg17
F0.0
sg18
F5249999.0
sg19
F1110705.0
sg20
F108.0
sg21
F6645187.0
sg22
F213999.0
sg23
F5501630.0
sg24
F953136.0
ssS'DURAN WILLIAM D'
p189
(dp190
g3
F904.0
sg4
F0.0
sg5
F0.11899563670158386
sg6
F25785.0
sg7
I00
sg8
F1105218.0
sg9
F106.0
sg10
F0.0
sg11
F189041.0
sg12
F0.0
sg13
F599.0
sg14
F0.0
sg15
F12.0
sg16
F1568.0
sg17
F0.0
sg18
F750000.0
sg19
F1640910.0
sg20
F3.0
sg21
F2439914.0
sg22
F210692.0
sg23
F2093263.0
sg24
F1451869.0
ssS'THORN TERENCE H'
p191
(dp192
g3
F266.0
sg4
F16586.0
sg5
F0.0
sg6
F46145.0
sg7
I00
sg8
F200000.0
sg9
F0.0
sg10
F0.0
sg11
F365320.0
sg12
F0.0
sg13
F73.0
sg14
F0.0
sg15
F41.0
sg16
F426629.0
sg17
F0.0
sg18
F0.0
sg19
F4817796.0
sg20
F0.0
sg21
F5147343.0
sg22
F222093.0
sg23
F911453.0
sg24
F4452476.0
ssS'FASTOW ANDREW S'
p193
(dp194
g3
F1211.0
sg4
F0.0
sg5
F0.034345049411058426
sg6
F55921.0
sg7
I01
sg8
F1736055.0
sg9
F35.0
sg10
F-1386055.0
sg11
F1794412.0
sg12
F0.0
sg13
F740.5
sg14
F0.0
sg15
F41.0
sg16
F277464.0
sg17
F0.0
sg18
F1300000.0
sg19
F1794412.0
sg20
F8.0
sg21
F2074083.0
sg22
F440698.0
sg23
F2424083.0
sg24
F0.0
ssS'FOY JOE'
p195
(dp196
g3
F57.0
sg4
F181755.0
sg5
F0.0
sg6
F0.0
sg7
I00
sg8
F0.0
sg9
F0.0
sg10
F0.0
sg11
F0.0
sg12
F0.0
sg13
F2.0
sg14
F0.0
sg15
F13.0
sg16
F0.0
sg17
F0.0
sg18
F0.0
sg19
F343434.0
sg20
F0.0
sg21
F343434.0
sg22
F0.0
sg23
F181755.0
sg24
F343434.0
ssS'CALGER CHRISTOPHER F'
p197
(dp198
g3
F2598.0
sg4
F0.0
sg5
F0.08169219642877579
sg6
F35818.0
sg7
I01
sg8
F375304.0
sg9
F199.0
sg10
F-262500.0
sg11
F126027.0
sg12
F0.0
sg13
F2188.0
sg14
F0.0
sg15
F144.0
sg16
F486.0
sg17
F0.0
sg18
F1250000.0
sg19
F126027.0
sg20
F25.0
sg21
F1526493.0
sg22
F240189.0
sg23
F1639297.0
sg24
F0.0
ssS'RICE KENNETH D'
p199
(dp200
g3
F905.0
sg4
F0.0
sg5
F0.04983748495578766
sg6
F46950.0
sg7
I01
sg8
F1617011.0
sg9
F42.0
sg10
F-3504386.0
sg11
F2748364.0
sg12
F0.0
sg13
F864.0
sg14
F0.0
sg15
F18.0
sg16
F174839.0
sg17
F0.0
sg18
F1750000.0
sg19
F22542540.0
sg20
F4.0
sg21
F22186600.0
sg22
F420636.0
sg23
F505050.0
sg24
F19794176.0
ssS'KAMINSKI WINCENTY J'
p201
(dp202
g3
F4607.0
sg4
F0.0
sg5
F0.01117259543389082
sg6
F83585.0
sg7
I00
sg8
F323466.0
sg9
F41.0
sg10
F0.0
sg11
F126027.0
sg12
F0.0
sg13
F583.0
sg14
F0.0
sg15
F14368.0
sg16
F4669.0
sg17
F0.0
sg18
F400000.0
sg19
F976037.0
sg20
F171.0
sg21
F1613365.0
sg22
F275101.0
sg23
F1086821.0
sg24
F850010.0
ssS'LOCKHART EUGENE E'
p203
(dp204
g3
F1211.0
sg4
F0.0
sg5
F0.034345049411058426
sg6
F0.0
sg7
I00
sg8
F0.0
sg9
F35.0
sg10
F0.0
sg11
F0.0
sg12
F0.0
sg13
F740.5
sg14
F0.0
sg15
F41.0
sg16
F0.0
sg17
F0.0
sg18
F0.0
sg19
F0.0
sg20
F8.0
sg21
F0.0
sg22
F0.0
sg23
F0.0
sg24
F0.0
ssS'COX DAVID'
p205
(dp206
g3
F102.0
sg4
F0.0
sg5
F0.029629629105329514
sg6
F27861.0
sg7
I00
sg8
F0.0
sg9
F0.0
sg10
F-41250.0
sg11
F378082.0
sg12
F0.0
sg13
F71.0
sg14
F0.0
sg15
F33.0
sg16
F494.0
sg17
F0.0
sg18
F800000.0
sg19
F495633.0
sg20
F4.0
sg21
F1260194.0
sg22
F314288.0
sg23
F1101393.0
sg24
F117551.0
ssS'OVERDYKE JR JERE C'
p207
(dp208
g3
F1211.0
sg4
F0.0
sg5
F0.034345049411058426
sg6
F18834.0
sg7
I00
sg8
F135836.0
sg9
F35.0
sg10
F0.0
sg11
F2041016.0
sg12
F0.0
sg13
F740.5
sg14
F0.0
sg15
F41.0
sg16
F176.0
sg17
F0.0
sg18
F0.0
sg19
F7307594.0
sg20
F8.0
sg21
F5380529.0
sg22
F94941.0
sg23
F249787.0
sg24
F5266578.0
ssS'PEREIRA PAULO V. FERRAZ'
p209
(dp210
g3
F1211.0
sg4
F0.0
sg5
F0.034345049411058426
sg6
F27942.0
sg7
I00
sg8
F0.0
sg9
F35.0
sg10
F-101250.0
sg11
F0.0
sg12
F0.0
sg13
F740.5
sg14
F0.0
sg15
F41.0
sg16
F0.0
sg17
F101250.0
sg18
F0.0
sg19
F0.0
sg20
F8.0
sg21
F129192.0
sg22
F0.0
sg23
F27942.0
sg24
F0.0
ssS'STABLER FRANK'
p211
(dp212
g3
F1211.0
sg4
F0.0
sg5
F0.034345049411058426
sg6
F16514.0
sg7
I00
sg8
F0.0
sg9
F35.0
sg10
F0.0
sg11
F511734.0
sg12
F0.0
sg13
F740.5
sg14
F0.0
sg15
F41.0
sg16
F356071.0
sg17
F0.0
sg18
F500000.0
sg19
F511734.0
sg20
F8.0
sg21
F1112087.0
sg22
F239502.0
sg23
F1112087.0
sg24
F0.0
ssS'SKILLING JEFFREY K'
p213
(dp214
g3
F3627.0
sg4
F0.0
sg5
F0.03159303963184357
sg6
F29336.0
sg7
I01
sg8
F1920000.0
sg9
F88.0
sg10
F0.0
sg11
F6843672.0
sg12
F0.0
sg13
F2042.0
sg14
F0.0
sg15
F108.0
sg16
F22122.0
sg17
F0.0
sg18
F5600000.0
sg19
F26093672.0
sg20
F30.0
sg21
F26012716.0
sg22
F1111258.0
sg23
F8682716.0
sg24
F19250000.0
ssS'BLAKE JR. NORMAN P'
p215
(dp216
g3
F1211.0
sg4
F0.0
sg5
F0.034345049411058426
sg6
F1279.0
sg7
I00
sg8
F0.0
sg9
F35.0
sg10
F-113784.0
sg11
F0.0
sg12
F0.0
sg13
F740.5
sg14
F0.0
sg15
F41.0
sg16
F0.0
sg17
F113784.0
sg18
F0.0
sg19
F0.0
sg20
F8.0
sg21
F115063.0
sg22
F0.0
sg23
F1279.0
sg24
F0.0
ssS'SHERRICK JEFFREY B'
p217
(dp218
g3
F613.0
sg4
F0.0
sg5
F0.08934169262647629
sg6
F0.0
sg7
I00
sg8
F0.0
sg9
F39.0
sg10
F0.0
sg11
F405999.0
sg12
F0.0
sg13
F583.0
sg14
F0.0
sg15
F25.0
sg16
F0.0
sg17
F0.0
sg18
F0.0
sg19
F1832468.0
sg20
F18.0
sg21
F1426469.0
sg22
F0.0
sg23
F0.0
sg24
F1426469.0
ssS'PRENTICE JAMES'
p219
(dp220
g3
F1211.0
sg4
F564348.0
sg5
F0.034345049411058426
sg6
F0.0
sg7
I00
sg8
F0.0
sg9
F35.0
sg10
F0.0
sg11
F208809.0
sg12
F0.0
sg13
F740.5
sg14
F0.0
sg15
F41.0
sg16
F0.0
sg17
F0.0
sg18
F0.0
sg19
F1095040.0
sg20
F8.0
sg21
F886231.0
sg22
F0.0
sg23
F564348.0
sg24
F886231.0
ssS'GRAY RODNEY'
p221
(dp222
g3
F1211.0
sg4
F93585.0
sg5
F0.034345049411058426
sg6
F0.0
sg7
I00
sg8
F365625.0
sg9
F35.0
sg10
F0.0
sg11
F0.0
sg12
F0.0
sg13
F740.5
sg14
F0.0
sg15
F41.0
sg16
F680833.0
sg17
F0.0
sg18
F0.0
sg19
F0.0
sg20
F8.0
sg21
F687448.0
sg22
F6615.0
sg23
F1146658.0
sg24
F0.0
ssS'PICKERING MARK R'
p223
(dp224
g3
F898.0
sg4
F0.0
sg5
F0.007253886200487614
sg6
F31653.0
sg7
I00
sg8
F0.0
sg9
F7.0
sg10
F0.0
sg11
F0.0
sg12
F0.0
sg13
F728.0
sg14
F400000.0
sg15
F67.0
sg16
F0.0
sg17
F0.0
sg18
F300000.0
sg19
F28798.0
sg20
F0.0
sg21
F1015488.0
sg22
F655037.0
sg23
F1386690.0
sg24
F28798.0
ssS'THE TRAVEL AGENCY IN THE PARK'
p225
(dp226
g3
F1211.0
sg4
F0.0
sg5
F0.034345049411058426
sg6
F0.0
sg7
I00
sg8
F0.0
sg9
F35.0
sg10
F0.0
sg11
F0.0
sg12
F0.0
sg13
F740.5
sg14
F0.0
sg15
F41.0
sg16
F362096.0
sg17
F0.0
sg18
F0.0
sg19
F0.0
sg20
F8.0
sg21
F362096.0
sg22
F0.0
sg23
F362096.0
sg24
F0.0
ssS'NOLES JAMES L'
p227
(dp228
g3
F1211.0
sg4
F774401.0
sg5
F0.034345049411058426
sg6
F0.0
sg7
I00
sg8
F0.0
sg9
F35.0
sg10
F0.0
sg11
F463261.0
sg12
F-94556.0
sg13
F740.5
sg14
F0.0
sg15
F41.0
sg16
F0.0
sg17
F0.0
sg18
F0.0
sg19
F368705.0
sg20
F8.0
sg21
F0.0
sg22
F0.0
sg23
F774401.0
sg24
F0.0
ssS'KEAN STEVEN J'
p229
(dp230
g3
F12754.0
sg4
F0.0
sg5
F0.027007635682821274
sg6
F41953.0
sg7
I00
sg8
F300000.0
sg9
F140.0
sg10
F0.0
sg11
F4131594.0
sg12
F0.0
sg13
F3639.0
sg14
F0.0
sg15
F6759.0
sg16
F1231.0
sg17
F0.0
sg18
F1000000.0
sg19
F6153642.0
sg20
F387.0
sg21
F3469570.0
sg22
F404338.0
sg23
F1747522.0
sg24
F2022048.0
ssS'FOWLER PEGGY'
p231
(dp232
g3
F517.0
sg4
F0.0
sg5
F0.0
sg6
F0.0
sg7
I00
sg8
F0.0
sg9
F0.0
sg10
F0.0
sg11
F560170.0
sg12
F0.0
sg13
F10.0
sg14
F0.0
sg15
F36.0
sg16
F0.0
sg17
F0.0
sg18
F0.0
sg19
F1884748.0
sg20
F0.0
sg21
F1324578.0
sg22
F0.0
sg23
F0.0
sg24
F1324578.0
ssS'WASAFF GEORGE'
p233
(dp234
g3
F400.0
sg4
F831299.0
sg5
F0.06744185835123062
sg6
F0.0
sg7
I00
sg8
F200000.0
sg9
F22.0
sg10
F-583325.0
sg11
F388167.0
sg12
F0.0
sg13
F337.0
sg14
F0.0
sg15
F30.0
sg16
F1425.0
sg17
F0.0
sg18
F325000.0
sg19
F2056427.0
sg20
F7.0
sg21
F2254681.0
sg22
F259996.0
sg23
F1034395.0
sg24
F1668260.0
ssS'WHITE JR THOMAS E'
p235
(dp236
g3
F1211.0
sg4
F0.0
sg5
F0.034345049411058426
sg6
F81353.0
sg7
I00
sg8
F0.0
sg9
F35.0
sg10
F0.0
sg11
F13847074.0
sg12
F0.0
sg13
F740.5
sg14
F0.0
sg15
F41.0
sg16
F1085463.0
sg17
F0.0
sg18
F450000.0
sg19
F15144123.0
sg20
F8.0
sg21
F3231408.0
sg22
F317543.0
sg23
F1934359.0
sg24
F1297049.0
ssS'CHRISTODOULOU DIOMEDES'
p237
(dp238
g3
F1211.0
sg4
F0.0
sg5
F0.034345049411058426
sg6
F0.0
sg7
I00
sg8
F0.0
sg9
F35.0
sg10
F0.0
sg11
F950730.0
sg12
F0.0
sg13
F740.5
sg14
F0.0
sg15
F41.0
sg16
F0.0
sg17
F0.0
sg18
F0.0
sg19
F6077885.0
sg20
F8.0
sg21
F5127155.0
sg22
F0.0
sg23
F0.0
sg24
F5127155.0
ssS'ALLEN PHILLIP K'
p239
(dp240
g3
F2902.0
sg4
F2869717.0
sg5
F0.021973710507154465
sg6
F13868.0
sg7
I00
sg8
F304805.0
sg9
F47.0
sg10
F-3081055.0
sg11
F126027.0
sg12
F-126027.0
sg13
F1407.0
sg14
F0.0
sg15
F2195.0
sg16
F152.0
sg17
F0.0
sg18
F4175000.0
sg19
F1729541.0
sg20
F65.0
sg21
F6120516.0
sg22
F201955.0
sg23
F4484442.0
sg24
F1729541.0
ssS'SHARP VICTORIA T'
p241
(dp242
g3
F3136.0
sg4
F187469.0
sg5
F0.00916870404034853
sg6
F116337.0
sg7
I00
sg8
F422158.0
sg9
F24.0
sg10
F0.0
sg11
F213063.0
sg12
F0.0
sg13
F2477.0
sg14
F0.0
sg15
F136.0
sg16
F2401.0
sg17
F0.0
sg18
F600000.0
sg19
F494136.0
sg20
F6.0
sg21
F1247957.0
sg22
F248146.0
sg23
F1576511.0
sg24
F281073.0
ssS'JAEDICKE ROBERT'
p243
(dp244
g3
F1211.0
sg4
F0.0
sg5
F0.034345049411058426
sg6
F0.0
sg7
I00
sg8
F0.0
sg9
F35.0
sg10
F-25000.0
sg11
F44093.0
sg12
F-44093.0
sg13
F740.5
sg14
F0.0
sg15
F41.0
sg16
F0.0
sg17
F108750.0
sg18
F0.0
sg19
F431750.0
sg20
F8.0
sg21
F540500.0
sg22
F0.0
sg23
F83750.0
sg24
F431750.0
ssS'WINOKUR JR. HERBERT S'
p245
(dp246
g3
F1211.0
sg4
F0.0
sg5
F0.034345049411058426
sg6
F1413.0
sg7
I00
sg8
F0.0
sg9
F35.0
sg10
F-25000.0
sg11
F0.0
sg12
F0.0
sg13
F740.5
sg14
F0.0
sg15
F41.0
sg16
F0.0
sg17
F108579.0
sg18
F0.0
sg19
F0.0
sg20
F8.0
sg21
F109992.0
sg22
F0.0
sg23
F84992.0
sg24
F0.0
ssS'BROWN MICHAEL'
p247
(dp248
g3
F1486.0
sg4
F0.0
sg5
F0.009168303571641445
sg6
F49288.0
sg7
I00
sg8
F0.0
sg9
F13.0
sg10
F0.0
sg11
F0.0
sg12
F0.0
sg13
F761.0
sg14
F0.0
sg15
F41.0
sg16
F0.0
sg17
F0.0
sg18
F0.0
sg19
F0.0
sg20
F1.0
sg21
F49288.0
sg22
F0.0
sg23
F49288.0
sg24
F0.0
ssS'BADUM JAMES P'
p249
(dp250
g3
F1211.0
sg4
F178980.0
sg5
F0.034345049411058426
sg6
F3486.0
sg7
I00
sg8
F0.0
sg9
F35.0
sg10
F0.0
sg11
F0.0
sg12
F0.0
sg13
F740.5
sg14
F0.0
sg15
F41.0
sg16
F0.0
sg17
F0.0
sg18
F0.0
sg19
F257817.0
sg20
F8.0
sg21
F261303.0
sg22
F0.0
sg23
F182466.0
sg24
F257817.0
ssS'HUGHES JAMES A'
p251
(dp252
g3
F719.0
sg4
F0.0
sg5
F0.05312085151672363
sg6
F0.0
sg7
I00
sg8
F0.0
sg9
F35.0
sg10
F0.0
sg11
F363428.0
sg12
F0.0
sg13
F589.0
sg14
F0.0
sg15
F34.0
sg16
F0.0
sg17
F0.0
sg18
F0.0
sg19
F1118394.0
sg20
F5.0
sg21
F754966.0
sg22
F0.0
sg23
F0.0
sg24
F754966.0
ssS'REYNOLDS LAWRENCE'
p253
(dp254
g3
F1211.0
sg4
F51365.0
sg5
F0.034345049411058426
sg6
F8409.0
sg7
I00
sg8
F156250.0
sg9
F35.0
sg10
F-200000.0
sg11
F201483.0
sg12
F-140264.0
sg13
F740.5
sg14
F0.0
sg15
F41.0
sg16
F202052.0
sg17
F0.0
sg18
F100000.0
sg19
F4221891.0
sg20
F8.0
sg21
F4547532.0
sg22
F76399.0
sg23
F394475.0
sg24
F4160672.0
ssS'DIMICHELE RICHARD G'
p255
(dp256
g3
F1211.0
sg4
F0.0
sg5
F0.034345049411058426
sg6
F35812.0
sg7
I00
sg8
F694862.0
sg9
F35.0
sg10
F0.0
sg11
F126027.0
sg12
F0.0
sg13
F740.5
sg14
F0.0
sg15
F41.0
sg16
F374689.0
sg17
F0.0
sg18
F1000000.0
sg19
F8317782.0
sg20
F8.0
sg21
F9865044.0
sg22
F262788.0
sg23
F2368151.0
sg24
F8191755.0
ssS'BHATNAGAR SANJAY'
p257
(dp258
g3
F523.0
sg4
F0.0
sg5
F0.0018115942366421223
sg6
F0.0
sg7
I00
sg8
F0.0
sg9
F0.0
sg10
F0.0
sg11
F-2604490.0
sg12
F15456290.0
sg13
F463.0
sg14
F0.0
sg15
F29.0
sg16
F137864.0
sg17
F137864.0
sg18
F0.0
sg19
F0.0
sg20
F1.0
sg21
F2880218.0
sg22
F0.0
sg23
F15456290.0
sg24
F2604490.0
ssS'CARTER REBECCA C'
p259
(dp260
g3
F312.0
sg4
F0.0
sg5
F0.11009174585342407
sg6
F0.0
sg7
I00
sg8
F75000.0
sg9
F29.0
sg10
F-159792.0
sg11
F307301.0
sg12
F-307301.0
sg13
F196.0
sg14
F0.0
sg15
F15.0
sg16
F540.0
sg17
F0.0
sg18
F300000.0
sg19
F0.0
sg20
F7.0
sg21
F562349.0
sg22
F261809.0
sg23
F477557.0
sg24
F0.0
ssS'BUCHANAN HAROLD G'
p261
(dp262
g3
F1088.0
sg4
F0.0
sg5
F0.0
sg6
F600.0
sg7
I00
sg8
F304805.0
sg9
F0.0
sg10
F0.0
sg11
F189041.0
sg12
F0.0
sg13
F23.0
sg14
F0.0
sg15
F125.0
sg16
F1215.0
sg17
F0.0
sg18
F500000.0
sg19
F1014505.0
sg20
F0.0
sg21
F1575296.0
sg22
F248017.0
sg23
F1054637.0
sg24
F825464.0
ssS'YEAP SOON'
p263
(dp264
g3
F1211.0
sg4
F0.0
sg5
F0.034345049411058426
sg6
F55097.0
sg7
I00
sg8
F0.0
sg9
F35.0
sg10
F0.0
sg11
F0.0
sg12
F0.0
sg13
F740.5
sg14
F0.0
sg15
F41.0
sg16
F0.0
sg17
F0.0
sg18
F0.0
sg19
F192758.0
sg20
F8.0
sg21
F247855.0
sg22
F0.0
sg23
F55097.0
sg24
F192758.0
ssS'MURRAY JULIA H'
p265
(dp266
g3
F2192.0
sg4
F0.0
sg5
F0.005811354611068964
sg6
F57580.0
sg7
I00
sg8
F125000.0
sg9
F11.0
sg10
F0.0
sg11
F196983.0
sg12
F0.0
sg13
F395.0
sg14
F0.0
sg15
F45.0
sg16
F330.0
sg17
F0.0
sg18
F400000.0
sg19
F597461.0
sg20
F2.0
sg21
F1087672.0
sg22
F229284.0
sg23
F812194.0
sg24
F400478.0
ssS'GARLAND C KEVIN'
p267
(dp268
g3
F209.0
sg4
F0.0
sg5
F0.1462450623512268
sg6
F48405.0
sg7
I00
sg8
F375304.0
sg9
F10.0
sg10
F0.0
sg11
F259907.0
sg12
F0.0
sg13
F178.0
sg14
F0.0
sg15
F44.0
sg16
F60814.0
sg17
F0.0
sg18
F850000.0
sg19
F896153.0
sg20
F27.0
sg21
F1827411.0
sg22
F231946.0
sg23
F1566469.0
sg24
F636246.0
ssS'DODSON KEITH'
p269
(dp270
g3
F176.0
sg4
F0.0
sg5
F0.06842105090618134
sg6
F28164.0
sg7
I00
sg8
F0.0
sg9
F10.0
sg10
F0.0
sg11
F0.0
sg12
F0.0
sg13
F114.0
sg14
F0.0
sg15
F14.0
sg16
F774.0
sg17
F0.0
sg18
F70000.0
sg19
F0.0
sg20
F3.0
sg21
F319941.0
sg22
F221003.0
sg23
F319941.0
sg24
F0.0
ssS'YEAGER F SCOTT'
p271
(dp272
g3
F1211.0
sg4
F0.0
sg5
F0.034345049411058426
sg6
F53947.0
sg7
I01
sg8
F0.0
sg9
F35.0
sg10
F0.0
sg11
F3576206.0
sg12
F0.0
sg13
F740.5
sg14
F0.0
sg15
F41.0
sg16
F147950.0
sg17
F0.0
sg18
F0.0
sg19
F11884758.0
sg20
F8.0
sg21
F8668852.0
sg22
F158403.0
sg23
F360300.0
sg24
F8308552.0
ssS'HIRKO JOSEPH'
p273
(dp274
g3
F1211.0
sg4
F10259.0
sg5
F0.034345049411058426
sg6
F77978.0
sg7
I01
sg8
F0.0
sg9
F35.0
sg10
F0.0
sg11
F0.0
sg12
F0.0
sg13
F740.5
sg14
F0.0
sg15
F41.0
sg16
F2856.0
sg17
F0.0
sg18
F0.0
sg19
F30766064.0
sg20
F8.0
sg21
F30846898.0
sg22
F0.0
sg23
F91093.0
sg24
F30766064.0
ssS'DIETRICH JANET R'
p275
(dp276
g3
F2572.0
sg4
F0.0
sg5
F0.12106262147426605
sg6
F3475.0
sg7
I00
sg8
F556416.0
sg9
F305.0
sg10
F0.0
sg11
F315068.0
sg12
F0.0
sg13
F1902.0
sg14
F0.0
sg15
F63.0
sg16
F473.0
sg17
F0.0
sg18
F600000.0
sg19
F1865087.0
sg20
F14.0
sg21
F2404067.0
sg22
F250100.0
sg23
F1410464.0
sg24
F1550019.0
ssS'DERRICK JR. JAMES V'
p277
(dp278
g3
F2181.0
sg4
F0.0
sg5
F0.027184465900063515
sg6
F51124.0
sg7
I00
sg8
F484000.0
sg9
F64.0
sg10
F-1284000.0
sg11
F1787380.0
sg12
F-1787380.0
sg13
F1401.0
sg14
F0.0
sg15
F909.0
sg16
F7482.0
sg17
F0.0
sg18
F800000.0
sg19
F8831913.0
sg20
F20.0
sg21
F10182894.0
sg22
F492375.0
sg23
F550981.0
sg24
F8831913.0
ssS'FREVERT MARK A'
p279
(dp280
g3
F3275.0
sg4
F6426990.0
sg5
F0.07524272054433823
sg6
F86987.0
sg7
I00
sg8
F1617011.0
sg9
F242.0
sg10
F-3367011.0
sg11
F4188667.0
sg12
F0.0
sg13
F2979.0
sg14
F2000000.0
sg15
F21.0
sg16
F7427621.0
sg17
F0.0
sg18
F2000000.0
sg19
F14622185.0
sg20
F6.0
sg21
F21009058.0
sg22
F1060932.0
sg23
F17252530.0
sg24
F10433518.0
ssS'PAI LOU L'
p281
(dp282
g3
F1211.0
sg4
F0.0
sg5
F0.034345049411058426
sg6
F32047.0
sg7
I00
sg8
F0.0
sg9
F35.0
sg10
F0.0
sg11
F8453763.0
sg12
F0.0
sg13
F740.5
sg14
F0.0
sg15
F41.0
sg16
F1829457.0
sg17
F0.0
sg18
F1000000.0
sg19
F23817930.0
sg20
F8.0
sg21
F18487550.0
sg22
F261879.0
sg23
F3123383.0
sg24
F15364167.0
ssS'BAY FRANKLIN R'
p283
(dp284
g3
F1211.0
sg4
F260455.0
sg5
F0.034345049411058426
sg6
F129142.0
sg7
I00
sg8
F0.0
sg9
F35.0
sg10
F-201641.0
sg11
F145796.0
sg12
F-82782.0
sg13
F740.5
sg14
F0.0
sg15
F41.0
sg16
F69.0
sg17
F0.0
sg18
F400000.0
sg19
F63014.0
sg20
F8.0
sg21
F768882.0
sg22
F239671.0
sg23
F827696.0
sg24
F0.0
ssS'HAYSLETT RODERICK J'
p285
(dp286
g3
F2649.0
sg4
F0.0
sg5
F0.01967654936015606
sg6
F0.0
sg7
I00
sg8
F0.0
sg9
F35.0
sg10
F0.0
sg11
F346663.0
sg12
F0.0
sg13
F571.0
sg14
F0.0
sg15
F1061.0
sg16
F0.0
sg17
F0.0
sg18
F0.0
sg19
F346663.0
sg20
F38.0
sg21
F0.0
sg22
F0.0
sg23
F0.0
sg24
F0.0
ssS'FUGH JOHN L'
p287
(dp288
g3
F1211.0
sg4
F50591.0
sg5
F0.034345049411058426
sg6
F0.0
sg7
I00
sg8
F0.0
sg9
F35.0
sg10
F0.0
sg11
F0.0
sg12
F0.0
sg13
F740.5
sg14
F0.0
sg15
F41.0
sg16
F0.0
sg17
F0.0
sg18
F0.0
sg19
F176378.0
sg20
F8.0
sg21
F176378.0
sg22
F0.0
sg23
F50591.0
sg24
F176378.0
ssS'FALLON JAMES B'
p289
(dp290
g3
F1755.0
sg4
F0.0
sg5
F0.04316939786076546
sg6
F95924.0
sg7
I00
sg8
F374347.0
sg9
F42.0
sg10
F0.0
sg11
F1392142.0
sg12
F0.0
sg13
F1604.0
sg14
F0.0
sg15
F75.0
sg16
F401481.0
sg17
F0.0
sg18
F2500000.0
sg19
F2332399.0
sg20
F37.0
sg21
F4242250.0
sg22
F304588.0
sg23
F3676340.0
sg24
F940257.0
ssS'KOENIG MARK E'
p291
(dp292
g3
F2374.0
sg4
F0.0
sg5
F0.02792607806622982
sg6
F127017.0
sg7
I01
sg8
F300000.0
sg9
F53.0
sg10
F0.0
sg11
F1248318.0
sg12
F0.0
sg13
F2271.0
sg14
F0.0
sg15
F61.0
sg16
F150458.0
sg17
F0.0
sg18
F700000.0
sg19
F1920055.0
sg20
F15.0
sg21
F1959158.0
sg22
F309946.0
sg23
F1587421.0
sg24
F671737.0
ssS'SAVAGE FRANK'
p293
(dp294
g3
F1211.0
sg4
F0.0
sg5
F0.034345049411058426
sg6
F0.0
sg7
I00
sg8
F0.0
sg9
F35.0
sg10
F-121284.0
sg11
F0.0
sg12
F0.0
sg13
F740.5
sg14
F0.0
sg15
F41.0
sg16
F0.0
sg17
F125034.0
sg18
F0.0
sg19
F0.0
sg20
F8.0
sg21
F125034.0
sg22
F0.0
sg23
F3750.0
sg24
F0.0
ssS'IZZO LAWRENCE L'
p295
(dp296
g3
F496.0
sg4
F0.0
sg5
F0.06407766789197922
sg6
F28093.0
sg7
I00
sg8
F312500.0
sg9
F28.0
sg10
F0.0
sg11
F3654808.0
sg12
F0.0
sg13
F437.0
sg14
F0.0
sg15
F19.0
sg16
F1553729.0
sg17
F0.0
sg18
F0.0
sg19
F5819980.0
sg20
F5.0
sg21
F3832268.0
sg22
F85274.0
sg23
F1979596.0
sg24
F2165172.0
ssS'TILNEY ELIZABETH A'
p297
(dp298
g3
F460.0
sg4
F0.0
sg5
F0.04384133592247963
sg6
F0.0
sg7
I00
sg8
F275000.0
sg9
F10.0
sg10
F-575000.0
sg11
F576792.0
sg12
F0.0
sg13
F379.0
sg14
F0.0
sg15
F19.0
sg16
F152055.0
sg17
F0.0
sg18
F300000.0
sg19
F1168042.0
sg20
F11.0
sg21
F1290643.0
sg22
F247338.0
sg23
F399393.0
sg24
F591250.0
ssS'MARTIN AMANDA K'
p299
(dp300
g3
F1522.0
sg4
F85430.0
sg5
F0.004566209856420755
sg6
F8211.0
sg7
I00
sg8
F5145434.0
sg9
F8.0
sg10
F0.0
sg11
F0.0
sg12
F0.0
sg13
F477.0
sg14
F0.0
sg15
F230.0
sg16
F2818454.0
sg17
F0.0
sg18
F0.0
sg19
F2070306.0
sg20
F0.0
sg21
F5246458.0
sg22
F349487.0
sg23
F8407016.0
sg24
F2070306.0
ssS'BUY RICHARD B'
p301
(dp302
g3
F3523.0
sg4
F649584.0
sg5
F0.04960664361715317
sg6
F0.0
sg7
I00
sg8
F769862.0
sg9
F156.0
sg10
F-694862.0
sg11
F901657.0
sg12
F0.0
sg13
F2333.0
sg14
F0.0
sg15
F1053.0
sg16
F400572.0
sg17
F0.0
sg18
F900000.0
sg19
F3444470.0
sg20
F71.0
sg21
F4173931.0
sg22
F330546.0
sg23
F2355702.0
sg24
F2542813.0
ssS'GRAMM WENDY L'
p303
(dp304
g3
F1211.0
sg4
F0.0
sg5
F0.034345049411058426
sg6
F0.0
sg7
I00
sg8
F0.0
sg9
F35.0
sg10
F0.0
sg11
F0.0
sg12
F0.0
sg13
F740.5
sg14
F0.0
sg15
F41.0
sg16
F0.0
sg17
F119292.0
sg18
F0.0
sg19
F0.0
sg20
F8.0
sg21
F119292.0
sg22
F0.0
sg23
F119292.0
sg24
F0.0
ssS'CAUSEY RICHARD A'
p305
(dp306
g3
F1892.0
sg4
F0.0
sg5
F0.03606388345360756
sg6
F30674.0
sg7
I01
sg8
F350000.0
sg9
F58.0
sg10
F-235000.0
sg11
F2502063.0
sg12
F0.0
sg13
F1585.0
sg14
F0.0
sg15
F49.0
sg16
F307895.0
sg17
F0.0
sg18
F1000000.0
sg19
F2502063.0
sg20
F12.0
sg21
F1753758.0
sg22
F415189.0
sg23
F1868758.0
sg24
F0.0
ssS'TAYLOR MITCHELL S'
p307
(dp308
g3
F533.0
sg4
F227449.0
sg5
F0.0
sg6
F0.0
sg7
I00
sg8
F0.0
sg9
F0.0
sg10
F0.0
sg11
F563798.0
sg12
F0.0
sg13
F300.0
sg14
F0.0
sg15
F29.0
sg16
F0.0
sg17
F0.0
sg18
F600000.0
sg19
F3745048.0
sg20
F0.0
sg21
F4046464.0
sg22
F265214.0
sg23
F1092663.0
sg24
F3181250.0
ssS'DONAHUE JR JEFFREY M'
p309
(dp310
g3
F865.0
sg4
F0.0
sg5
F0.22435174882411957
sg6
F96268.0
sg7
I00
sg8
F0.0
sg9
F188.0
sg10
F-300000.0
sg11
F315068.0
sg12
F0.0
sg13
F772.0
sg14
F0.0
sg15
F22.0
sg16
F891.0
sg17
F0.0
sg18
F800000.0
sg19
F1080988.0
sg20
F11.0
sg21
F1941680.0
sg22
F278601.0
sg23
F875760.0
sg24
F765920.0
ssS'GLISAN JR BEN F'
p311
(dp312
g3
F873.0
sg4
F0.0
sg5
F0.06524184346199036
sg6
F125978.0
sg7
I01
sg8
F71023.0
sg9
F52.0
sg10
F0.0
sg11
F393818.0
sg12
F0.0
sg13
F874.0
sg14
F0.0
sg15
F16.0
sg16
F200308.0
sg17
F0.0
sg18
F600000.0
sg19
F778546.0
sg20
F6.0
sg21
F1585989.0
sg22
F274975.0
sg23
F1272284.0
sg24
F384728.0
ss.