(lp0
S'poi'
p1
aS'salary'
p2
aS'bonus'
p3
aS'pct_msg_with_poi'
p4
aS'total_stock_value'
p5
aS'expenses'
p6
aS'exercised_stock_options'
p7
aS'deferred_income'
p8
aS'short_term_incomes'
p9
aS'long_term_incentive'
p10
a.